; Function Attrs: mustprogress uwtable
define void @_Z23duDebugDrawCylinderWireP11duDebugDrawffffffjf(ptr noundef %0, float noundef %1, float noundef %2, float noundef %3, float noundef %4, float noundef %5, float noundef %6, i32 noundef %7, float noundef %8) local_unnamed_addr #4 {
  %.not = icmp eq ptr %0, null
  br i1 %.not, label %17, label %10

10:                                               ; preds = %9
  %11 = load ptr, ptr %0, align 8
  %12 = getelementptr inbounds i8, ptr %11, i64 32
  %13 = load ptr, ptr %12, align 8
  tail call void %13(ptr noundef nonnull align 8 dereferenceable(8) %0, i32 noundef 1, float noundef %8)
  tail call void @_Z20duAppendCylinderWireP11duDebugDrawffffffj(ptr noundef nonnull %0, float noundef %1, float noundef %2, float noundef %3, float noundef %4, float noundef %5, float noundef %6, i32 noundef %7)
  %14 = load ptr, ptr %0, align 8
  %15 = getelementptr inbounds i8, ptr %14, i64 72
  %16 = load ptr, ptr %15, align 8
  tail call void %16(ptr noundef nonnull align 8 dereferenceable(8) %0)
  br label %17

17:                                               ; preds = %9, %10
  ret void
}